target datalayout = "e-m:e-p270:32:32-p271:32:32-p272:64:64-i64:64-i128:128-f80:128-n8:16:32:64-S128"
target triple = "x86_64-pc-linux-gnu"

%struct.lua_TValue = type { %union.Value, [1 x i32], i32 }
%union.Value = type { ptr }
%struct.lua_State = type { i8, i8, i8, i8, i8, i8, i8, ptr, ptr, ptr, ptr, ptr, ptr, ptr, ptr, i32, i32, i16, i16, i32, ptr, ptr, ptr, ptr, ptr }
%struct.CallInfo = type { ptr, ptr, ptr, ptr, i32, i32 }

; Function Attrs: mustprogress uwtable
define dso_local noundef i32 @_Z14lua_checkstackP9lua_Statei(ptr noundef %0, i32 noundef %1) #0 {
  %3 = alloca ptr, align 8
  %4 = alloca i32, align 4
  %5 = alloca i32, align 4
  store ptr %0, ptr %3, align 8, !tbaa !4
  store i32 %1, ptr %4, align 4, !tbaa !9
  call void @llvm.lifetime.start.p0(i64 4, ptr %5) #11
  store i32 1, ptr %5, align 4, !tbaa !9
  %6 = load i32, ptr %4, align 4, !tbaa !9
  %7 = icmp sgt i32 %6, 8000
  br i1 %7, label %23, label %8

8:                                                ; preds = %2
  %9 = load ptr, ptr %3, align 8, !tbaa !4
  %10 = getelementptr inbounds nuw %struct.lua_State, ptr %9, i32 0, i32 7
  %11 = load ptr, ptr %10, align 8, !tbaa !23
  %12 = load ptr, ptr %3, align 8, !tbaa !4
  %13 = getelementptr inbounds nuw %struct.lua_State, ptr %12, i32 0, i32 8
  %14 = load ptr, ptr %13, align 8, !tbaa !13
  %15 = ptrtoint ptr %11 to i64
  %16 = ptrtoint ptr %14 to i64
  %17 = sub i64 %15, %16
  %18 = sdiv exact i64 %17, 16
  %19 = load i32, ptr %4, align 4, !tbaa !9
  %20 = sext i32 %19 to i64
  %21 = add nsw i64 %18, %20
  %22 = icmp sgt i64 %21, 8000
  br i1 %22, label %23, label %24

23:                                               ; preds = %8, %2
  store i32 0, ptr %5, align 4, !tbaa !9
  br label %71

24:                                               ; preds = %8
  %25 = load i32, ptr %4, align 4, !tbaa !9
  %26 = icmp sgt i32 %25, 0
  br i1 %26, label %27, label %70

27:                                               ; preds = %24
  %28 = load ptr, ptr %3, align 8, !tbaa !4
  %29 = getelementptr inbounds nuw %struct.lua_State, ptr %28, i32 0, i32 11
  %30 = load ptr, ptr %29, align 8, !tbaa !26
  %31 = load ptr, ptr %3, align 8, !tbaa !4
  %32 = getelementptr inbounds nuw %struct.lua_State, ptr %31, i32 0, i32 7
  %33 = load ptr, ptr %32, align 8, !tbaa !23
  %34 = ptrtoint ptr %30 to i64
  %35 = ptrtoint ptr %33 to i64
  %36 = sub i64 %34, %35
  %37 = load i32, ptr %4, align 4, !tbaa !9
  %38 = mul nsw i32 %37, 16
  %39 = sext i32 %38 to i64
  %40 = icmp sle i64 %36, %39
  br i1 %40, label %41, label %44

41:                                               ; preds = %27
  %42 = load ptr, ptr %3, align 8, !tbaa !4
  %43 = load i32, ptr %4, align 4, !tbaa !9
  call void @_Z14luaD_growstackP9lua_Statei(ptr noundef %42, i32 noundef %43)
  br label %45

44:                                               ; preds = %27
  br label %45

45:                                               ; preds = %44, %41
  %46 = load ptr, ptr %3, align 8, !tbaa !4
  %47 = getelementptr inbounds nuw %struct.lua_State, ptr %46, i32 0, i32 10
  %48 = load ptr, ptr %47, align 8, !tbaa !27
  %49 = getelementptr inbounds nuw %struct.CallInfo, ptr %48, i32 0, i32 2
  %50 = load ptr, ptr %49, align 8, !tbaa !28
  %51 = load ptr, ptr %3, align 8, !tbaa !4
  %52 = getelementptr inbounds nuw %struct.lua_State, ptr %51, i32 0, i32 7
  %53 = load ptr, ptr %52, align 8, !tbaa !23
  %54 = load i32, ptr %4, align 4, !tbaa !9
  %55 = sext i32 %54 to i64
  %56 = getelementptr inbounds %struct.lua_TValue, ptr %53, i64 %55
  %57 = icmp ult ptr %50, %56
  br i1 %57, label %58, label %69

58:                                               ; preds = %45
  %59 = load ptr, ptr %3, align 8, !tbaa !4
  %60 = getelementptr inbounds nuw %struct.lua_State, ptr %59, i32 0, i32 7
  %61 = load ptr, ptr %60, align 8, !tbaa !23
  %62 = load i32, ptr %4, align 4, !tbaa !9
  %63 = sext i32 %62 to i64
  %64 = getelementptr inbounds %struct.lua_TValue, ptr %61, i64 %63
  %65 = load ptr, ptr %3, align 8, !tbaa !4
  %66 = getelementptr inbounds nuw %struct.lua_State, ptr %65, i32 0, i32 10
  %67 = load ptr, ptr %66, align 8, !tbaa !27
  %68 = getelementptr inbounds nuw %struct.CallInfo, ptr %67, i32 0, i32 2
  store ptr %64, ptr %68, align 8, !tbaa !28
  br label %69

69:                                               ; preds = %58, %45
  br label %70

70:                                               ; preds = %69, %24
  br label %71

71:                                               ; preds = %70, %23
  %72 = load i32, ptr %5, align 4, !tbaa !9
  call void @llvm.lifetime.end.p0(i64 4, ptr %5) #11
  ret i32 %72
}